target datalayout = "e-m:e-p270:32:32-p271:32:32-p272:64:64-i64:64-i128:128-f80:128-n8:16:32:64-S128"
target triple = "x86_64-pc-linux-gnu"

; Function Attrs: inlinehint nounwind sspstrong uwtable
define internal i64 @i_gcd(i64 noundef %0, i64 noundef %1) #3 {
  %3 = alloca i64, align 8
  %4 = alloca i64, align 8
  %5 = alloca i64, align 8
  %6 = alloca i64, align 8
  %7 = alloca i64, align 8
  %8 = alloca i64, align 8
  %9 = alloca i32, align 4
  %10 = alloca i32, align 4
  store i64 %0, ptr %4, align 8, !tbaa !7
  store i64 %1, ptr %5, align 8, !tbaa !7
  call void @llvm.lifetime.start.p0(i64 8, ptr %6) #21
  call void @llvm.lifetime.start.p0(i64 8, ptr %7) #21
  call void @llvm.lifetime.start.p0(i64 8, ptr %8) #21
  call void @llvm.lifetime.start.p0(i64 4, ptr %9) #21
  %11 = load i64, ptr %4, align 8, !tbaa !7
  %12 = icmp slt i64 %11, 0
  br i1 %12, label %13, label %16

13:                                               ; preds = %2
  %14 = load i64, ptr %4, align 8, !tbaa !7
  %15 = sub i64 0, %14
  store i64 %15, ptr %4, align 8, !tbaa !7
  br label %16

16:                                               ; preds = %13, %2
  %17 = load i64, ptr %5, align 8, !tbaa !7
  %18 = icmp slt i64 %17, 0
  br i1 %18, label %19, label %22

19:                                               ; preds = %16
  %20 = load i64, ptr %5, align 8, !tbaa !7
  %21 = sub i64 0, %20
  store i64 %21, ptr %5, align 8, !tbaa !7
  br label %22

22:                                               ; preds = %19, %16
  %23 = load i64, ptr %4, align 8, !tbaa !7
  %24 = icmp eq i64 %23, 0
  br i1 %24, label %25, label %27

25:                                               ; preds = %22
  %26 = load i64, ptr %5, align 8, !tbaa !7
  store i64 %26, ptr %3, align 8
  store i32 1, ptr %10, align 4
  br label %86

27:                                               ; preds = %22
  %28 = load i64, ptr %5, align 8, !tbaa !7
  %29 = icmp eq i64 %28, 0
  br i1 %29, label %30, label %32

30:                                               ; preds = %27
  %31 = load i64, ptr %4, align 8, !tbaa !7
  store i64 %31, ptr %3, align 8
  store i32 1, ptr %10, align 4
  br label %86

32:                                               ; preds = %27
  %33 = load i64, ptr %4, align 8, !tbaa !7
  store i64 %33, ptr %6, align 8, !tbaa !7
  %34 = load i64, ptr %5, align 8, !tbaa !7
  store i64 %34, ptr %7, align 8, !tbaa !7
  store i32 0, ptr %9, align 4, !tbaa !14
  br label %35

35:                                               ; preds = %46, %32
  %36 = load i64, ptr %6, align 8, !tbaa !7
  %37 = load i64, ptr %7, align 8, !tbaa !7
  %38 = or i64 %36, %37
  %39 = and i64 %38, 1
  %40 = icmp eq i64 %39, 0
  br i1 %40, label %41, label %49

41:                                               ; preds = %35
  %42 = load i64, ptr %6, align 8, !tbaa !7
  %43 = lshr i64 %42, 1
  store i64 %43, ptr %6, align 8, !tbaa !7
  %44 = load i64, ptr %7, align 8, !tbaa !7
  %45 = lshr i64 %44, 1
  store i64 %45, ptr %7, align 8, !tbaa !7
  br label %46

46:                                               ; preds = %41
  %47 = load i32, ptr %9, align 4, !tbaa !14
  %48 = add i32 %47, 1
  store i32 %48, ptr %9, align 4, !tbaa !14
  br label %35, !llvm.loop !38

49:                                               ; preds = %35
  br label %50

50:                                               ; preds = %54, %49
  %51 = load i64, ptr %6, align 8, !tbaa !7
  %52 = and i64 %51, 1
  %53 = icmp eq i64 %52, 0
  br i1 %53, label %54, label %57

54:                                               ; preds = %50
  %55 = load i64, ptr %6, align 8, !tbaa !7
  %56 = lshr i64 %55, 1
  store i64 %56, ptr %6, align 8, !tbaa !7
  br label %50, !llvm.loop !40

57:                                               ; preds = %50
  br label %58

58:                                               ; preds = %78, %57
  br label %59

59:                                               ; preds = %63, %58
  %60 = load i64, ptr %7, align 8, !tbaa !7
  %61 = and i64 %60, 1
  %62 = icmp eq i64 %61, 0
  br i1 %62, label %63, label %66

63:                                               ; preds = %59
  %64 = load i64, ptr %7, align 8, !tbaa !7
  %65 = lshr i64 %64, 1
  store i64 %65, ptr %7, align 8, !tbaa !7
  br label %59, !llvm.loop !41

66:                                               ; preds = %59
  %67 = load i64, ptr %6, align 8, !tbaa !7
  %68 = load i64, ptr %7, align 8, !tbaa !7
  %69 = icmp ugt i64 %67, %68
  br i1 %69, label %70, label %74

70:                                               ; preds = %66
  %71 = load i64, ptr %7, align 8, !tbaa !7
  store i64 %71, ptr %8, align 8, !tbaa !7
  %72 = load i64, ptr %6, align 8, !tbaa !7
  store i64 %72, ptr %7, align 8, !tbaa !7
  %73 = load i64, ptr %8, align 8, !tbaa !7
  store i64 %73, ptr %6, align 8, !tbaa !7
  br label %74

74:                                               ; preds = %70, %66
  %75 = load i64, ptr %7, align 8, !tbaa !7
  %76 = load i64, ptr %6, align 8, !tbaa !7
  %77 = sub i64 %75, %76
  store i64 %77, ptr %7, align 8, !tbaa !7
  br label %78

78:                                               ; preds = %74
  %79 = load i64, ptr %7, align 8, !tbaa !7
  %80 = icmp ne i64 %79, 0
  br i1 %80, label %58, label %81, !llvm.loop !42

81:                                               ; preds = %78
  %82 = load i64, ptr %6, align 8, !tbaa !7
  %83 = load i32, ptr %9, align 4, !tbaa !14
  %84 = zext i32 %83 to i64
  %85 = shl i64 %82, %84
  store i64 %85, ptr %3, align 8
  store i32 1, ptr %10, align 4
  br label %86

86:                                               ; preds = %81, %30, %25
  call void @llvm.lifetime.end.p0(i64 4, ptr %9) #21
  call void @llvm.lifetime.end.p0(i64 8, ptr %8) #21
  call void @llvm.lifetime.end.p0(i64 8, ptr %7) #21
  call void @llvm.lifetime.end.p0(i64 8, ptr %6) #21
  %87 = load i64, ptr %3, align 8
  ret i64 %87
}