; Function Attrs: inlinehint nofree norecurse nosync nounwind sspstrong memory(none) uwtable
define internal fastcc i64 @i_gcd(i64 noundef range(i64 -4611686018427387904, 4611686018427387904) %0, i64 noundef range(i64 -4611686018427387904, 4611686018427387904) %1) unnamed_addr #12 {
  %.036 = tail call i64 @llvm.abs.i64(i64 %1, i1 true)
  %3 = icmp eq i64 %0, 0
  br i1 %3, label %28, label %4

4:                                                ; preds = %2
  %spec.select = tail call i64 @llvm.abs.i64(i64 %0, i1 true)
  %5 = icmp eq i64 %1, 0
  br i1 %5, label %28, label %.preheader46

.preheader46:                                     ; preds = %4
  %6 = or i64 %.036, %spec.select
  %7 = and i64 %6, 1
  %8 = icmp eq i64 %7, 0
  br i1 %8, label %.lr.ph, label %.preheader45

.preheader45.loopexit:                            ; preds = %.lr.ph
  %9 = zext nneg i32 %12 to i64
  br label %.preheader45

.preheader45:                                     ; preds = %.preheader45.loopexit, %.preheader46
  %.032.lcssa = phi i64 [ %spec.select, %.preheader46 ], [ %10, %.preheader45.loopexit ]
  %.031.lcssa = phi i64 [ %.036, %.preheader46 ], [ %11, %.preheader45.loopexit ]
  %.0.lcssa = phi i64 [ 0, %.preheader46 ], [ %9, %.preheader45.loopexit ]
  br label %16

.lr.ph:                                           ; preds = %.preheader46, %.lr.ph
  %.049 = phi i32 [ %12, %.lr.ph ], [ 0, %.preheader46 ]
  %.03148 = phi i64 [ %11, %.lr.ph ], [ %.036, %.preheader46 ]
  %.03247 = phi i64 [ %10, %.lr.ph ], [ %spec.select, %.preheader46 ]
  %10 = lshr i64 %.03247, 1
  %11 = lshr i64 %.03148, 1
  %12 = add i32 %.049, 1
  %13 = or i64 %11, %10
  %14 = and i64 %13, 1
  %15 = icmp eq i64 %14, 0
  br i1 %15, label %.lr.ph, label %.preheader45.loopexit, !llvm.loop !13

16:                                               ; preds = %16, %.preheader45
  %.133 = phi i64 [ %19, %16 ], [ %.032.lcssa, %.preheader45 ]
  %17 = and i64 %.133, 1
  %18 = icmp eq i64 %17, 0
  %19 = lshr exact i64 %.133, 1
  br i1 %18, label %16, label %.preheader, !llvm.loop !15

.preheader:                                       ; preds = %16, %24
  %.234 = phi i64 [ %spec.select43, %24 ], [ %.133, %16 ]
  %.1 = phi i64 [ %25, %24 ], [ %.031.lcssa, %16 ]
  br label %20

20:                                               ; preds = %20, %.preheader
  %.2 = phi i64 [ %.1, %.preheader ], [ %23, %20 ]
  %21 = and i64 %.2, 1
  %22 = icmp eq i64 %21, 0
  %23 = lshr exact i64 %.2, 1
  br i1 %22, label %20, label %24, !llvm.loop !16

24:                                               ; preds = %20
  %spec.select43 = tail call i64 @llvm.umin.i64(i64 %.234, i64 %.2)
  %spec.select44 = tail call i64 @llvm.umax.i64(i64 %.234, i64 %.2)
  %25 = sub i64 %spec.select44, %spec.select43
  %.not = icmp eq i64 %25, 0
  br i1 %.not, label %26, label %.preheader, !llvm.loop !17

26:                                               ; preds = %24
  %27 = shl i64 %spec.select43, %.0.lcssa
  br label %28

28:                                               ; preds = %4, %2, %26
  %.030 = phi i64 [ %27, %26 ], [ %.036, %2 ], [ %spec.select, %4 ]
  ret i64 %.030
}